target datalayout = "e-m:e-p270:32:32-p271:32:32-p272:64:64-i64:64-i128:128-f80:128-n8:16:32:64-S128"
target triple = "x86_64-pc-linux-gnu"

%"struct.std::__detail::_Hash_node_base" = type { ptr }
%"struct.std::__detail::_Prime_rehash_policy" = type { float, i64 }
%"class.open3d::visualization::Visualizer" = type { ptr, ptr, %"class.std::__cxx11::basic_string", %"class.std::shared_ptr", %"class.Eigen::Matrix", %"class.Eigen::Matrix", %"class.std::function", %"class.std::function", %"struct.open3d::visualization::Visualizer::MouseControl", i8, i8, i32, i32, i32, i32, %"class.std::unique_ptr", %"class.std::unique_ptr.20", %"class.std::unordered_set", %"class.std::unordered_set.47", %"class.std::vector", %"class.std::vector.70", %"class.std::unordered_map.75", %"class.std::shared_ptr.89", %"class.std::shared_ptr.92" }
%"class.std::__cxx11::basic_string" = type { %"struct.std::__cxx11::basic_string<char>::_Alloc_hider", i64, %union.anon }
%"struct.std::__cxx11::basic_string<char>::_Alloc_hider" = type { ptr }
%union.anon = type { i64, [8 x i8] }
%"class.std::shared_ptr" = type { %"class.std::__shared_ptr" }
%"class.std::__shared_ptr" = type { ptr, %"class.std::__shared_count" }
%"class.std::__shared_count" = type { ptr }
%"class.Eigen::Matrix" = type { %"class.Eigen::PlainObjectBase" }
%"class.Eigen::PlainObjectBase" = type { %"class.Eigen::DenseStorage" }
%"class.Eigen::DenseStorage" = type { %"struct.Eigen::internal::plain_array" }
%"struct.Eigen::internal::plain_array" = type { [2 x i32] }
%"class.std::function" = type { %"class.std::_Function_base", ptr }
%"class.std::_Function_base" = type { %"union.std::_Any_data", ptr }
%"union.std::_Any_data" = type { %"union.std::_Nocopy_types" }
%"union.std::_Nocopy_types" = type { { i64, i64 } }
%"struct.open3d::visualization::Visualizer::MouseControl" = type { i8, i8, i8, i8, i8, i8, double, double }
%"class.std::unique_ptr" = type { %"struct.std::__uniq_ptr_data" }
%"struct.std::__uniq_ptr_data" = type { %"class.std::__uniq_ptr_impl" }
%"class.std::__uniq_ptr_impl" = type { %"class.std::tuple" }
%"class.std::tuple" = type { %"struct.std::_Tuple_impl" }
%"struct.std::_Tuple_impl" = type { %"struct.std::_Head_base.19" }
%"struct.std::_Head_base.19" = type { ptr }
%"class.std::unique_ptr.20" = type { %"struct.std::__uniq_ptr_data.21" }
%"struct.std::__uniq_ptr_data.21" = type { %"class.std::__uniq_ptr_impl.22" }
%"class.std::__uniq_ptr_impl.22" = type { %"class.std::tuple.23" }
%"class.std::tuple.23" = type { %"struct.std::_Tuple_impl.24" }
%"struct.std::_Tuple_impl.24" = type { %"struct.std::_Head_base.27" }
%"struct.std::_Head_base.27" = type { ptr }
%"class.std::unordered_set" = type { %"class.std::_Hashtable.28" }
%"class.std::_Hashtable.28" = type { ptr, i64, %"struct.std::__detail::_Hash_node_base", i64, %"struct.std::__detail::_Prime_rehash_policy", ptr }
%"class.std::unordered_set.47" = type { %"class.std::_Hashtable.48" }
%"class.std::_Hashtable.48" = type { ptr, i64, %"struct.std::__detail::_Hash_node_base", i64, %"struct.std::__detail::_Prime_rehash_policy", ptr }
%"class.std::vector" = type { %"struct.std::_Vector_base" }
%"struct.std::_Vector_base" = type { %"struct.std::_Vector_base<std::shared_ptr<const open3d::geometry::Geometry>, std::allocator<std::shared_ptr<const open3d::geometry::Geometry>>>::_Vector_impl" }
%"struct.std::_Vector_base<std::shared_ptr<const open3d::geometry::Geometry>, std::allocator<std::shared_ptr<const open3d::geometry::Geometry>>>::_Vector_impl" = type { %"struct.std::_Vector_base<std::shared_ptr<const open3d::geometry::Geometry>, std::allocator<std::shared_ptr<const open3d::geometry::Geometry>>>::_Vector_impl_data" }
%"struct.std::_Vector_base<std::shared_ptr<const open3d::geometry::Geometry>, std::allocator<std::shared_ptr<const open3d::geometry::Geometry>>>::_Vector_impl_data" = type { ptr, ptr, ptr }
%"class.std::vector.70" = type { %"struct.std::_Vector_base.71" }
%"struct.std::_Vector_base.71" = type { %"struct.std::_Vector_base<std::shared_ptr<open3d::visualization::glsl::GeometryRenderer>, std::allocator<std::shared_ptr<open3d::visualization::glsl::GeometryRenderer>>>::_Vector_impl" }
%"struct.std::_Vector_base<std::shared_ptr<open3d::visualization::glsl::GeometryRenderer>, std::allocator<std::shared_ptr<open3d::visualization::glsl::GeometryRenderer>>>::_Vector_impl" = type { %"struct.std::_Vector_base<std::shared_ptr<open3d::visualization::glsl::GeometryRenderer>, std::allocator<std::shared_ptr<open3d::visualization::glsl::GeometryRenderer>>>::_Vector_impl_data" }
%"struct.std::_Vector_base<std::shared_ptr<open3d::visualization::glsl::GeometryRenderer>, std::allocator<std::shared_ptr<open3d::visualization::glsl::GeometryRenderer>>>::_Vector_impl_data" = type { ptr, ptr, ptr }
%"class.std::unordered_map.75" = type { %"class.std::_Hashtable.76" }
%"class.std::_Hashtable.76" = type { ptr, i64, %"struct.std::__detail::_Hash_node_base", i64, %"struct.std::__detail::_Prime_rehash_policy", ptr }
%"class.std::shared_ptr.89" = type { %"class.std::__shared_ptr.90" }
%"class.std::__shared_ptr.90" = type { ptr, %"class.std::__shared_count" }
%"class.std::shared_ptr.92" = type { %"class.std::__shared_ptr.93" }
%"class.std::__shared_ptr.93" = type { ptr, %"class.std::__shared_count" }

; Function Attrs: mustprogress nounwind ssp uwtable
define linkonce_odr noundef nonnull align 8 dereferenceable(8) ptr @_ZNSt10_Head_baseILm0EPN6open3d13visualization11ViewControlELb0EE7_M_headERKS4_(ptr noundef nonnull align 8 dereferenceable(8) %0) #1 comdat align 2 {
  %2 = alloca ptr, align 8
  store ptr %0, ptr %2, align 8, !tbaa !217
  %3 = load ptr, ptr %2, align 8, !tbaa !217
  %4 = getelementptr inbounds nuw %"struct.std::_Head_base.19", ptr %3, i32 0, i32 0
  ret ptr %4
}

; Function Attrs: mustprogress nounwind ssp uwtable
define linkonce_odr noundef nonnull align 8 dereferenceable(8) ptr @_ZNSt11_Tuple_implILm0EJPN6open3d13visualization11ViewControlESt14default_deleteIS2_EEE7_M_headERKS6_(ptr noundef nonnull align 8 dereferenceable(8) %0) #1 comdat align 2 {
  %2 = alloca ptr, align 8
  store ptr %0, ptr %2, align 8, !tbaa !215
  %3 = load ptr, ptr %2, align 8, !tbaa !215
  %4 = call noundef nonnull align 8 dereferenceable(8) ptr @_ZNSt10_Head_baseILm0EPN6open3d13visualization11ViewControlELb0EE7_M_headERKS4_(ptr noundef nonnull align 8 dereferenceable(8) %3) #7
  ret ptr %4
}

; Function Attrs: mustprogress nounwind ssp uwtable
define linkonce_odr noundef nonnull align 8 dereferenceable(8) ptr @_ZSt12__get_helperILm0EPN6open3d13visualization11ViewControlEJSt14default_deleteIS2_EEERKT0_RKSt11_Tuple_implIXT_EJS6_DpT1_EE(ptr noundef nonnull align 8 dereferenceable(8) %0) #1 comdat {
  %2 = alloca ptr, align 8
  store ptr %0, ptr %2, align 8, !tbaa !215
  %3 = load ptr, ptr %2, align 8, !tbaa !215
  %4 = call noundef nonnull align 8 dereferenceable(8) ptr @_ZNSt11_Tuple_implILm0EJPN6open3d13visualization11ViewControlESt14default_deleteIS2_EEE7_M_headERKS6_(ptr noundef nonnull align 8 dereferenceable(8) %3) #7
  ret ptr %4
}

; Function Attrs: mustprogress nounwind ssp uwtable
define linkonce_odr noundef nonnull align 8 dereferenceable(8) ptr @_ZSt3getILm0EJPN6open3d13visualization11ViewControlESt14default_deleteIS2_EEERKNSt13tuple_elementIXT_ESt5tupleIJDpT0_EEE4typeERKSA_(ptr noundef nonnull align 8 dereferenceable(8) %0) #1 comdat {
  %2 = alloca ptr, align 8
  store ptr %0, ptr %2, align 8, !tbaa !213
  %3 = load ptr, ptr %2, align 8, !tbaa !213
  %4 = call noundef nonnull align 8 dereferenceable(8) ptr @_ZSt12__get_helperILm0EPN6open3d13visualization11ViewControlEJSt14default_deleteIS2_EEERKT0_RKSt11_Tuple_implIXT_EJS6_DpT1_EE(ptr noundef nonnull align 8 dereferenceable(8) %3) #7
  ret ptr %4
}

; Function Attrs: mustprogress nounwind ssp uwtable
define linkonce_odr noundef ptr @_ZNKSt15__uniq_ptr_implIN6open3d13visualization11ViewControlESt14default_deleteIS2_EE6_M_ptrEv(ptr noundef nonnull align 8 dereferenceable(8) %0) #1 comdat align 2 {
  %2 = alloca ptr, align 8
  store ptr %0, ptr %2, align 8, !tbaa !210
  %3 = load ptr, ptr %2, align 8
  %4 = getelementptr inbounds nuw %"class.std::__uniq_ptr_impl", ptr %3, i32 0, i32 0
  %5 = call noundef nonnull align 8 dereferenceable(8) ptr @_ZSt3getILm0EJPN6open3d13visualization11ViewControlESt14default_deleteIS2_EEERKNSt13tuple_elementIXT_ESt5tupleIJDpT0_EEE4typeERKSA_(ptr noundef nonnull align 8 dereferenceable(8) %4) #7
  %6 = load ptr, ptr %5, align 8, !tbaa !212
  ret ptr %6
}

; Function Attrs: mustprogress nounwind ssp uwtable
define linkonce_odr noundef ptr @_ZNKSt10unique_ptrIN6open3d13visualization11ViewControlESt14default_deleteIS2_EE3getEv(ptr noundef nonnull align 8 dereferenceable(8) %0) #1 comdat align 2 {
  %2 = alloca ptr, align 8
  store ptr %0, ptr %2, align 8, !tbaa !208
  %3 = load ptr, ptr %2, align 8
  %4 = getelementptr inbounds nuw %"class.std::unique_ptr", ptr %3, i32 0, i32 0
  %5 = call noundef ptr @_ZNKSt15__uniq_ptr_implIN6open3d13visualization11ViewControlESt14default_deleteIS2_EE6_M_ptrEv(ptr noundef nonnull align 8 dereferenceable(8) %4) #7
  ret ptr %5
}

; Function Attrs: mustprogress nounwind ssp uwtable
define linkonce_odr noundef ptr @_ZNKSt10unique_ptrIN6open3d13visualization11ViewControlESt14default_deleteIS2_EEptEv(ptr noundef nonnull align 8 dereferenceable(8) %0) #1 comdat align 2 {
  %2 = alloca ptr, align 8
  store ptr %0, ptr %2, align 8, !tbaa !208
  %3 = load ptr, ptr %2, align 8
  %4 = call noundef ptr @_ZNKSt10unique_ptrIN6open3d13visualization11ViewControlESt14default_deleteIS2_EE3getEv(ptr noundef nonnull align 8 dereferenceable(8) %3) #7
  ret ptr %4
}

; Function Attrs: mustprogress ssp uwtable
define void @_ZN6open3d13visualization10Visualizer17MouseMoveCallbackEP10GLFWwindowdd(ptr noundef nonnull align 8 dereferenceable(456) %0, ptr noundef %1, double noundef %2, double noundef %3) unnamed_addr #3 align 2 {
  %5 = alloca ptr, align 8
  %6 = alloca ptr, align 8
  %7 = alloca double, align 8
  %8 = alloca double, align 8
  store ptr %0, ptr %5, align 8, !tbaa !148
  store ptr %1, ptr %6, align 8, !tbaa !150
  store double %2, ptr %7, align 8, !tbaa !219
  store double %3, ptr %8, align 8, !tbaa !219
  %9 = load ptr, ptr %5, align 8
  %10 = getelementptr inbounds nuw %"class.open3d::visualization::Visualizer", ptr %9, i32 0, i32 8
  %11 = getelementptr inbounds nuw %"struct.open3d::visualization::Visualizer::MouseControl", ptr %10, i32 0, i32 0
  %12 = load i8, ptr %11, align 8, !tbaa !220, !range !116, !noundef !117
  %13 = trunc i8 %12 to i1
  br i1 %13, label %14, label %110

14:                                               ; preds = %4
  %15 = getelementptr inbounds nuw %"class.open3d::visualization::Visualizer", ptr %9, i32 0, i32 8
  %16 = getelementptr inbounds nuw %"struct.open3d::visualization::Visualizer::MouseControl", ptr %15, i32 0, i32 2
  %17 = load i8, ptr %16, align 2, !tbaa !221, !range !116, !noundef !117
  %18 = trunc i8 %17 to i1
  br i1 %18, label %19, label %41

19:                                               ; preds = %14
  %20 = getelementptr inbounds nuw %"class.open3d::visualization::Visualizer", ptr %9, i32 0, i32 15
  %21 = call noundef ptr @_ZNKSt10unique_ptrIN6open3d13visualization11ViewControlESt14default_deleteIS2_EEptEv(ptr noundef nonnull align 8 dereferenceable(8) %20) #7
  %22 = load double, ptr %7, align 8, !tbaa !219
  %23 = getelementptr inbounds nuw %"class.open3d::visualization::Visualizer", ptr %9, i32 0, i32 8
  %24 = getelementptr inbounds nuw %"struct.open3d::visualization::Visualizer::MouseControl", ptr %23, i32 0, i32 6
  %25 = load double, ptr %24, align 8, !tbaa !222
  %26 = fsub double %22, %25
  %27 = load double, ptr %8, align 8, !tbaa !219
  %28 = getelementptr inbounds nuw %"class.open3d::visualization::Visualizer", ptr %9, i32 0, i32 8
  %29 = getelementptr inbounds nuw %"struct.open3d::visualization::Visualizer::MouseControl", ptr %28, i32 0, i32 7
  %30 = load double, ptr %29, align 8, !tbaa !223
  %31 = fsub double %27, %30
  %32 = getelementptr inbounds nuw %"class.open3d::visualization::Visualizer", ptr %9, i32 0, i32 8
  %33 = getelementptr inbounds nuw %"struct.open3d::visualization::Visualizer::MouseControl", ptr %32, i32 0, i32 6
  %34 = load double, ptr %33, align 8, !tbaa !222
  %35 = getelementptr inbounds nuw %"class.open3d::visualization::Visualizer", ptr %9, i32 0, i32 8
  %36 = getelementptr inbounds nuw %"struct.open3d::visualization::Visualizer::MouseControl", ptr %35, i32 0, i32 7
  %37 = load double, ptr %36, align 8, !tbaa !223
  %38 = load ptr, ptr %21, align 16, !tbaa !206
  %39 = getelementptr inbounds ptr, ptr %38, i64 7
  %40 = load ptr, ptr %39, align 8
  call void %40(ptr noundef nonnull align 16 dereferenceable(728) %21, double noundef %26, double noundef %31, double noundef %34, double noundef %37)
  br label %108

41:                                               ; preds = %14
  %42 = getelementptr inbounds nuw %"class.open3d::visualization::Visualizer", ptr %9, i32 0, i32 8
  %43 = getelementptr inbounds nuw %"struct.open3d::visualization::Visualizer::MouseControl", ptr %42, i32 0, i32 3
  %44 = load i8, ptr %43, align 1, !tbaa !224, !range !116, !noundef !117
  %45 = trunc i8 %44 to i1
  br i1 %45, label %46, label %57

46:                                               ; preds = %41
  %47 = getelementptr inbounds nuw %"class.open3d::visualization::Visualizer", ptr %9, i32 0, i32 15
  %48 = call noundef ptr @_ZNKSt10unique_ptrIN6open3d13visualization11ViewControlESt14default_deleteIS2_EEptEv(ptr noundef nonnull align 8 dereferenceable(8) %47) #7
  %49 = load double, ptr %7, align 8, !tbaa !219
  %50 = getelementptr inbounds nuw %"class.open3d::visualization::Visualizer", ptr %9, i32 0, i32 8
  %51 = getelementptr inbounds nuw %"struct.open3d::visualization::Visualizer::MouseControl", ptr %50, i32 0, i32 6
  %52 = load double, ptr %51, align 8, !tbaa !222
  %53 = fsub double %49, %52
  %54 = load ptr, ptr %48, align 16, !tbaa !206
  %55 = getelementptr inbounds ptr, ptr %54, i64 11
  %56 = load ptr, ptr %55, align 8
  call void %56(ptr noundef nonnull align 16 dereferenceable(728) %48, double noundef %53)
  br label %107

57:                                               ; preds = %41
  %58 = getelementptr inbounds nuw %"class.open3d::visualization::Visualizer", ptr %9, i32 0, i32 8
  %59 = getelementptr inbounds nuw %"struct.open3d::visualization::Visualizer::MouseControl", ptr %58, i32 0, i32 4
  %60 = load i8, ptr %59, align 4, !tbaa !225, !range !116, !noundef !117
  %61 = trunc i8 %60 to i1
  br i1 %61, label %62, label %84

62:                                               ; preds = %57
  %63 = getelementptr inbounds nuw %"class.open3d::visualization::Visualizer", ptr %9, i32 0, i32 15
  %64 = call noundef ptr @_ZNKSt10unique_ptrIN6open3d13visualization11ViewControlESt14default_deleteIS2_EEptEv(ptr noundef nonnull align 8 dereferenceable(8) %63) #7
  %65 = load double, ptr %7, align 8, !tbaa !219
  %66 = getelementptr inbounds nuw %"class.open3d::visualization::Visualizer", ptr %9, i32 0, i32 8
  %67 = getelementptr inbounds nuw %"struct.open3d::visualization::Visualizer::MouseControl", ptr %66, i32 0, i32 6
  %68 = load double, ptr %67, align 8, !tbaa !222
  %69 = fsub double %65, %68
  %70 = load double, ptr %8, align 8, !tbaa !219
  %71 = getelementptr inbounds nuw %"class.open3d::visualization::Visualizer", ptr %9, i32 0, i32 8
  %72 = getelementptr inbounds nuw %"struct.open3d::visualization::Visualizer::MouseControl", ptr %71, i32 0, i32 7
  %73 = load double, ptr %72, align 8, !tbaa !223
  %74 = fsub double %70, %73
  %75 = getelementptr inbounds nuw %"class.open3d::visualization::Visualizer", ptr %9, i32 0, i32 8
  %76 = getelementptr inbounds nuw %"struct.open3d::visualization::Visualizer::MouseControl", ptr %75, i32 0, i32 6
  %77 = load double, ptr %76, align 8, !tbaa !222
  %78 = getelementptr inbounds nuw %"class.open3d::visualization::Visualizer", ptr %9, i32 0, i32 8
  %79 = getelementptr inbounds nuw %"struct.open3d::visualization::Visualizer::MouseControl", ptr %78, i32 0, i32 7
  %80 = load double, ptr %79, align 8, !tbaa !223
  %81 = load ptr, ptr %64, align 16, !tbaa !206
  %82 = getelementptr inbounds ptr, ptr %81, i64 9
  %83 = load ptr, ptr %82, align 8
  call void %83(ptr noundef nonnull align 16 dereferenceable(728) %64, double noundef %69, double noundef %74, double noundef %77, double noundef %80)
  br label %106

84:                                               ; preds = %57
  %85 = getelementptr inbounds nuw %"class.open3d::visualization::Visualizer", ptr %9, i32 0, i32 15
  %86 = call noundef ptr @_ZNKSt10unique_ptrIN6open3d13visualization11ViewControlESt14default_deleteIS2_EEptEv(ptr noundef nonnull align 8 dereferenceable(8) %85) #7
  %87 = load double, ptr %7, align 8, !tbaa !219
  %88 = getelementptr inbounds nuw %"class.open3d::visualization::Visualizer", ptr %9, i32 0, i32 8
  %89 = getelementptr inbounds nuw %"struct.open3d::visualization::Visualizer::MouseControl", ptr %88, i32 0, i32 6
  %90 = load double, ptr %89, align 8, !tbaa !222
  %91 = fsub double %87, %90
  %92 = load double, ptr %8, align 8, !tbaa !219
  %93 = getelementptr inbounds nuw %"class.open3d::visualization::Visualizer", ptr %9, i32 0, i32 8
  %94 = getelementptr inbounds nuw %"struct.open3d::visualization::Visualizer::MouseControl", ptr %93, i32 0, i32 7
  %95 = load double, ptr %94, align 8, !tbaa !223
  %96 = fsub double %92, %95
  %97 = getelementptr inbounds nuw %"class.open3d::visualization::Visualizer", ptr %9, i32 0, i32 8
  %98 = getelementptr inbounds nuw %"struct.open3d::visualization::Visualizer::MouseControl", ptr %97, i32 0, i32 6
  %99 = load double, ptr %98, align 8, !tbaa !222
  %100 = getelementptr inbounds nuw %"class.open3d::visualization::Visualizer", ptr %9, i32 0, i32 8
  %101 = getelementptr inbounds nuw %"struct.open3d::visualization::Visualizer::MouseControl", ptr %100, i32 0, i32 7
  %102 = load double, ptr %101, align 8, !tbaa !223
  %103 = load ptr, ptr %86, align 16, !tbaa !206
  %104 = getelementptr inbounds ptr, ptr %103, i64 6
  %105 = load ptr, ptr %104, align 8
  call void %105(ptr noundef nonnull align 16 dereferenceable(728) %86, double noundef %91, double noundef %96, double noundef %99, double noundef %102)
  br label %106

106:                                              ; preds = %84, %62
  br label %107

107:                                              ; preds = %106, %46
  br label %108

108:                                              ; preds = %107, %19
  %109 = getelementptr inbounds nuw %"class.open3d::visualization::Visualizer", ptr %9, i32 0, i32 9
  store i8 1, ptr %109, align 8, !tbaa !152
  br label %110

110:                                              ; preds = %108, %4
  %111 = getelementptr inbounds nuw %"class.open3d::visualization::Visualizer", ptr %9, i32 0, i32 8
  %112 = getelementptr inbounds nuw %"struct.open3d::visualization::Visualizer::MouseControl", ptr %111, i32 0, i32 1
  %113 = load i8, ptr %112, align 1, !tbaa !226, !range !116, !noundef !117
  %114 = trunc i8 %113 to i1
  br i1 %114, label %115, label %138

115:                                              ; preds = %110
  %116 = getelementptr inbounds nuw %"class.open3d::visualization::Visualizer", ptr %9, i32 0, i32 15
  %117 = call noundef ptr @_ZNKSt10unique_ptrIN6open3d13visualization11ViewControlESt14default_deleteIS2_EEptEv(ptr noundef nonnull align 8 dereferenceable(8) %116) #7
  %118 = load double, ptr %7, align 8, !tbaa !219
  %119 = getelementptr inbounds nuw %"class.open3d::visualization::Visualizer", ptr %9, i32 0, i32 8
  %120 = getelementptr inbounds nuw %"struct.open3d::visualization::Visualizer::MouseControl", ptr %119, i32 0, i32 6
  %121 = load double, ptr %120, align 8, !tbaa !222
  %122 = fsub double %118, %121
  %123 = load double, ptr %8, align 8, !tbaa !219
  %124 = getelementptr inbounds nuw %"class.open3d::visualization::Visualizer", ptr %9, i32 0, i32 8
  %125 = getelementptr inbounds nuw %"struct.open3d::visualization::Visualizer::MouseControl", ptr %124, i32 0, i32 7
  %126 = load double, ptr %125, align 8, !tbaa !223
  %127 = fsub double %123, %126
  %128 = getelementptr inbounds nuw %"class.open3d::visualization::Visualizer", ptr %9, i32 0, i32 8
  %129 = getelementptr inbounds nuw %"struct.open3d::visualization::Visualizer::MouseControl", ptr %128, i32 0, i32 6
  %130 = load double, ptr %129, align 8, !tbaa !222
  %131 = getelementptr inbounds nuw %"class.open3d::visualization::Visualizer", ptr %9, i32 0, i32 8
  %132 = getelementptr inbounds nuw %"struct.open3d::visualization::Visualizer::MouseControl", ptr %131, i32 0, i32 7
  %133 = load double, ptr %132, align 8, !tbaa !223
  %134 = load ptr, ptr %117, align 16, !tbaa !206
  %135 = getelementptr inbounds ptr, ptr %134, i64 7
  %136 = load ptr, ptr %135, align 8
  call void %136(ptr noundef nonnull align 16 dereferenceable(728) %117, double noundef %122, double noundef %127, double noundef %130, double noundef %133)
  %137 = getelementptr inbounds nuw %"class.open3d::visualization::Visualizer", ptr %9, i32 0, i32 9
  store i8 1, ptr %137, align 8, !tbaa !152
  br label %138

138:                                              ; preds = %115, %110
  %139 = load double, ptr %7, align 8, !tbaa !219
  %140 = getelementptr inbounds nuw %"class.open3d::visualization::Visualizer", ptr %9, i32 0, i32 8
  %141 = getelementptr inbounds nuw %"struct.open3d::visualization::Visualizer::MouseControl", ptr %140, i32 0, i32 6
  store double %139, ptr %141, align 8, !tbaa !222
  %142 = load double, ptr %8, align 8, !tbaa !219
  %143 = getelementptr inbounds nuw %"class.open3d::visualization::Visualizer", ptr %9, i32 0, i32 8
  %144 = getelementptr inbounds nuw %"struct.open3d::visualization::Visualizer::MouseControl", ptr %143, i32 0, i32 7
  store double %142, ptr %144, align 8, !tbaa !223
  ret void
}