; Function Attrs: mustprogress ssp uwtable
define void @_ZN6open3d13visualization10Visualizer17MouseMoveCallbackEP10GLFWwindowdd(ptr noundef nonnull align 8 captures(none) dereferenceable(456) %0, ptr noundef readnone captures(none) %1, double noundef %2, double noundef %3) unnamed_addr #4 align 2 {
  %5 = getelementptr inbounds nuw i8, ptr %0, i64 144
  %6 = load i8, ptr %5, align 8, !tbaa !99, !range !94, !noundef !95
  %7 = trunc nuw i8 %6 to i1
  br i1 %7, label %8, label %58

8:                                                ; preds = %4
  %9 = getelementptr inbounds nuw i8, ptr %0, i64 146
  %10 = load i8, ptr %9, align 2, !tbaa !100, !range !94, !noundef !95
  %11 = trunc nuw i8 %10 to i1
  br i1 %11, label %12, label %24

12:                                               ; preds = %8
  %13 = getelementptr inbounds nuw i8, ptr %0, i64 192
  %14 = load ptr, ptr %13, align 8, !tbaa !98
  %15 = getelementptr inbounds nuw i8, ptr %0, i64 152
  %16 = load double, ptr %15, align 8, !tbaa !101
  %17 = fsub double %2, %16
  %18 = getelementptr inbounds nuw i8, ptr %0, i64 160
  %19 = load double, ptr %18, align 8, !tbaa !102
  %20 = fsub double %3, %19
  %21 = load ptr, ptr %14, align 16, !tbaa !96
  %22 = getelementptr inbounds nuw i8, ptr %21, i64 56
  %23 = load ptr, ptr %22, align 8
  tail call void %23(ptr noundef nonnull align 16 dereferenceable(728) %14, double noundef %17, double noundef %20, double noundef %16, double noundef %19)
  br label %56

24:                                               ; preds = %8
  %25 = getelementptr inbounds nuw i8, ptr %0, i64 147
  %26 = load i8, ptr %25, align 1, !tbaa !103, !range !94, !noundef !95
  %27 = trunc nuw i8 %26 to i1
  br i1 %27, label %28, label %37

28:                                               ; preds = %24
  %29 = getelementptr inbounds nuw i8, ptr %0, i64 192
  %30 = load ptr, ptr %29, align 8, !tbaa !98
  %31 = getelementptr inbounds nuw i8, ptr %0, i64 152
  %32 = load double, ptr %31, align 8, !tbaa !101
  %33 = fsub double %2, %32
  %34 = load ptr, ptr %30, align 16, !tbaa !96
  %35 = getelementptr inbounds nuw i8, ptr %34, i64 88
  %36 = load ptr, ptr %35, align 8
  tail call void %36(ptr noundef nonnull align 16 dereferenceable(728) %30, double noundef %33)
  br label %56

37:                                               ; preds = %24
  %38 = getelementptr inbounds nuw i8, ptr %0, i64 148
  %39 = load i8, ptr %38, align 4, !tbaa !104, !range !94, !noundef !95
  %40 = trunc nuw i8 %39 to i1
  %41 = getelementptr inbounds nuw i8, ptr %0, i64 192
  %42 = load ptr, ptr %41, align 8, !tbaa !98
  %43 = getelementptr inbounds nuw i8, ptr %0, i64 152
  %44 = load double, ptr %43, align 8, !tbaa !101
  %45 = fsub double %2, %44
  %46 = getelementptr inbounds nuw i8, ptr %0, i64 160
  %47 = load double, ptr %46, align 8, !tbaa !102
  %48 = fsub double %3, %47
  %49 = load ptr, ptr %42, align 16, !tbaa !96
  br i1 %40, label %50, label %53

50:                                               ; preds = %37
  %51 = getelementptr inbounds nuw i8, ptr %49, i64 72
  %52 = load ptr, ptr %51, align 8
  tail call void %52(ptr noundef nonnull align 16 dereferenceable(728) %42, double noundef %45, double noundef %48, double noundef %44, double noundef %47)
  br label %56

53:                                               ; preds = %37
  %54 = getelementptr inbounds nuw i8, ptr %49, i64 48
  %55 = load ptr, ptr %54, align 8
  tail call void %55(ptr noundef nonnull align 16 dereferenceable(728) %42, double noundef %45, double noundef %48, double noundef %44, double noundef %47)
  br label %56

56:                                               ; preds = %28, %53, %50, %12
  %57 = getelementptr inbounds nuw i8, ptr %0, i64 168
  store i8 1, ptr %57, align 8, !tbaa !38
  br label %58

58:                                               ; preds = %56, %4
  %59 = getelementptr inbounds nuw i8, ptr %0, i64 145
  %60 = load i8, ptr %59, align 1, !tbaa !105, !range !94, !noundef !95
  %61 = trunc nuw i8 %60 to i1
  br i1 %61, label %62, label %75

62:                                               ; preds = %58
  %63 = getelementptr inbounds nuw i8, ptr %0, i64 192
  %64 = load ptr, ptr %63, align 8, !tbaa !98
  %65 = getelementptr inbounds nuw i8, ptr %0, i64 152
  %66 = load double, ptr %65, align 8, !tbaa !101
  %67 = fsub double %2, %66
  %68 = getelementptr inbounds nuw i8, ptr %0, i64 160
  %69 = load double, ptr %68, align 8, !tbaa !102
  %70 = fsub double %3, %69
  %71 = load ptr, ptr %64, align 16, !tbaa !96
  %72 = getelementptr inbounds nuw i8, ptr %71, i64 56
  %73 = load ptr, ptr %72, align 8
  tail call void %73(ptr noundef nonnull align 16 dereferenceable(728) %64, double noundef %67, double noundef %70, double noundef %66, double noundef %69)
  %74 = getelementptr inbounds nuw i8, ptr %0, i64 168
  store i8 1, ptr %74, align 8, !tbaa !38
  br label %75

75:                                               ; preds = %62, %58
  %76 = getelementptr inbounds nuw i8, ptr %0, i64 152
  store double %2, ptr %76, align 8, !tbaa !101
  %77 = getelementptr inbounds nuw i8, ptr %0, i64 160
  store double %3, ptr %77, align 8, !tbaa !102
  ret void
}